target datalayout = "e-m:e-p270:32:32-p271:32:32-p272:64:64-i64:64-i128:128-f80:128-n8:16:32:64-S128"
target triple = "x86_64-pc-linux-gnu"

; Function Attrs: null_pointer_is_valid sspstrong uwtable
define hidden ptr @uat_unbinstring(ptr noundef %0, i32 noundef %1, ptr noundef %2) #0 {
  %4 = alloca ptr, align 8
  %5 = alloca ptr, align 8
  %6 = alloca i32, align 4
  %7 = alloca ptr, align 8
  %8 = alloca ptr, align 8
  %9 = alloca i32, align 4
  %10 = alloca i32, align 4
  %11 = alloca i32, align 4
  %12 = alloca i32, align 4
  %13 = alloca i32, align 4
  store ptr %0, ptr %5, align 8
  store i32 %1, ptr %6, align 4
  store ptr %2, ptr %7, align 8
  call void @llvm.lifetime.start.p0(i64 8, ptr %8) #13
  call void @llvm.lifetime.start.p0(i64 4, ptr %9) #13
  %14 = load i32, ptr %6, align 4
  %15 = udiv i32 %14, 2
  store i32 %15, ptr %9, align 4
  call void @llvm.lifetime.start.p0(i64 4, ptr %10) #13
  store i32 0, ptr %10, align 4
  call void @llvm.lifetime.start.p0(i64 4, ptr %11) #13
  call void @llvm.lifetime.start.p0(i64 4, ptr %12) #13
  %16 = load i32, ptr %6, align 4
  %17 = urem i32 %16, 2
  %18 = icmp ne i32 %17, 0
  br i1 %18, label %19, label %20

19:                                               ; preds = %3
  store ptr null, ptr %4, align 8
  store i32 1, ptr %13, align 4
  br label %57

20:                                               ; preds = %3
  %21 = load i32, ptr %9, align 4
  %22 = add i32 %21, 1
  %23 = zext i32 %22 to i64
  %24 = call noalias ptr @g_malloc0(i64 noundef %23) #14
  store ptr %24, ptr %8, align 8
  %25 = load ptr, ptr %7, align 8
  %26 = icmp ne ptr %25, null
  br i1 %26, label %27, label %30

27:                                               ; preds = %20
  %28 = load i32, ptr %9, align 4
  %29 = load ptr, ptr %7, align 8
  store i32 %28, ptr %29, align 4
  br label %30

30:                                               ; preds = %27, %20
  br label %31

31:                                               ; preds = %34, %30
  %32 = load i32, ptr %6, align 4
  %33 = icmp ne i32 %32, 0
  br i1 %33, label %34, label %55

34:                                               ; preds = %31
  %35 = load ptr, ptr %5, align 8
  %36 = getelementptr i8, ptr %35, i32 1
  store ptr %36, ptr %5, align 8
  %37 = load i8, ptr %35, align 1
  %38 = call i32 @ws_xton(i8 noundef signext %37)
  store i32 %38, ptr %12, align 4
  %39 = load ptr, ptr %5, align 8
  %40 = getelementptr i8, ptr %39, i32 1
  store ptr %40, ptr %5, align 8
  %41 = load i8, ptr %39, align 1
  %42 = call i32 @ws_xton(i8 noundef signext %41)
  store i32 %42, ptr %11, align 4
  %43 = load i32, ptr %12, align 4
  %44 = mul i32 %43, 16
  %45 = load i32, ptr %11, align 4
  %46 = add i32 %44, %45
  %47 = trunc i32 %46 to i8
  %48 = load ptr, ptr %8, align 8
  %49 = load i32, ptr %10, align 4
  %50 = add i32 %49, 1
  store i32 %50, ptr %10, align 4
  %51 = sext i32 %49 to i64
  %52 = getelementptr i8, ptr %48, i64 %51
  store i8 %47, ptr %52, align 1
  %53 = load i32, ptr %6, align 4
  %54 = sub i32 %53, 2
  store i32 %54, ptr %6, align 4
  br label %31, !llvm.loop !33

55:                                               ; preds = %31
  %56 = load ptr, ptr %8, align 8
  store ptr %56, ptr %4, align 8
  store i32 1, ptr %13, align 4
  br label %57

57:                                               ; preds = %55, %19
  call void @llvm.lifetime.end.p0(i64 4, ptr %12) #13
  call void @llvm.lifetime.end.p0(i64 4, ptr %11) #13
  call void @llvm.lifetime.end.p0(i64 4, ptr %10) #13
  call void @llvm.lifetime.end.p0(i64 4, ptr %9) #13
  call void @llvm.lifetime.end.p0(i64 8, ptr %8) #13
  %58 = load ptr, ptr %4, align 8
  ret ptr %58
}