; Function Attrs: null_pointer_is_valid sspstrong uwtable
define hidden noalias ptr @uat_unbinstring(ptr noundef readonly captures(none) %0, i32 noundef %1, ptr noundef writeonly captures(address_is_null) %2) local_unnamed_addr #0 {
  %4 = lshr i32 %1, 1
  %5 = and i32 %1, 1
  %.not = icmp eq i32 %5, 0
  br i1 %.not, label %6, label %.loopexit

6:                                                ; preds = %3
  %7 = add nuw i32 %4, 1
  %8 = zext i32 %7 to i64
  %9 = tail call noalias ptr @g_malloc0(i64 noundef %8) #16
  %.not19 = icmp eq ptr %2, null
  br i1 %.not19, label %11, label %10

10:                                               ; preds = %6
  store i32 %4, ptr %2, align 4
  br label %11

11:                                               ; preds = %10, %6
  %.not2021 = icmp eq i32 %1, 0
  br i1 %.not2021, label %.loopexit, label %.lr.ph

.lr.ph:                                           ; preds = %11, %.lr.ph
  %.01524 = phi ptr [ %15, %.lr.ph ], [ %0, %11 ]
  %.01623 = phi i32 [ %21, %.lr.ph ], [ 0, %11 ]
  %.01722 = phi i32 [ %24, %.lr.ph ], [ %1, %11 ]
  %12 = getelementptr i8, ptr %.01524, i64 1
  %13 = load i8, ptr %.01524, align 1
  %14 = tail call i32 @ws_xton(i8 noundef signext %13)
  %15 = getelementptr i8, ptr %.01524, i64 2
  %16 = load i8, ptr %12, align 1
  %17 = tail call i32 @ws_xton(i8 noundef signext %16)
  %18 = shl i32 %14, 4
  %19 = add i32 %17, %18
  %20 = trunc i32 %19 to i8
  %21 = add i32 %.01623, 1
  %22 = sext i32 %.01623 to i64
  %23 = getelementptr i8, ptr %9, i64 %22
  store i8 %20, ptr %23, align 1
  %24 = add i32 %.01722, -2
  %.not20 = icmp eq i32 %24, 0
  br i1 %.not20, label %.loopexit, label %.lr.ph, !llvm.loop !34

.loopexit:                                        ; preds = %.lr.ph, %11, %3
  %.0 = phi ptr [ null, %3 ], [ %9, %11 ], [ %9, %.lr.ph ]
  ret ptr %.0
}